target datalayout = "e-m:e-p270:32:32-p271:32:32-p272:64:64-i64:64-i128:128-f80:128-n8:16:32:64-S128"
target triple = "x86_64-pc-linux-gnu"

%"struct.lean::lean_uv_tcp_socket_object" = type { ptr, ptr, ptr, ptr, ptr, ptr }
%class.anon.2 = type { i8 }
%struct.lean_object = type { i32, i32 }

; Function Attrs: inlinehint mustprogress nounwind uwtable
define internal noundef zeroext i1 @_ZL10lean_is_stP11lean_object(ptr noundef %0) #5 {
  %2 = alloca ptr, align 8
  store ptr %0, ptr %2, align 8, !tbaa !3
  %3 = load ptr, ptr %2, align 8, !tbaa !3
  %4 = getelementptr inbounds nuw %struct.lean_object, ptr %3, i32 0, i32 0
  %5 = load i32, ptr %4, align 4, !tbaa !86
  %6 = icmp sgt i32 %5, 0
  ret i1 %6
}

; Function Attrs: inlinehint mustprogress uwtable
define internal void @_ZL12lean_inc_refP11lean_object(ptr noundef %0) #7 {
  %2 = alloca ptr, align 8
  store ptr %0, ptr %2, align 8, !tbaa !3
  %3 = load ptr, ptr %2, align 8, !tbaa !3
  %4 = call noundef zeroext i1 @_ZL10lean_is_stP11lean_object(ptr noundef %3)
  %5 = zext i1 %4 to i64
  %6 = call i64 @llvm.expect.i64(i64 %5, i64 1)
  %7 = icmp ne i64 %6, 0
  br i1 %7, label %8, label %13

8:                                                ; preds = %1
  %9 = load ptr, ptr %2, align 8, !tbaa !3
  %10 = getelementptr inbounds nuw %struct.lean_object, ptr %9, i32 0, i32 0
  %11 = load i32, ptr %10, align 4, !tbaa !86
  %12 = add nsw i32 %11, 1
  store i32 %12, ptr %10, align 4, !tbaa !86
  br label %21

13:                                               ; preds = %1
  %14 = load ptr, ptr %2, align 8, !tbaa !3
  %15 = getelementptr inbounds nuw %struct.lean_object, ptr %14, i32 0, i32 0
  %16 = load i32, ptr %15, align 4, !tbaa !86
  %17 = icmp ne i32 %16, 0
  br i1 %17, label %18, label %20

18:                                               ; preds = %13
  %19 = load ptr, ptr %2, align 8, !tbaa !3
  call void @lean_inc_ref_cold(ptr noundef %19)
  br label %20

20:                                               ; preds = %18, %13
  br label %21

21:                                               ; preds = %20, %8
  ret void
}

; Function Attrs: alwaysinline mustprogress nounwind uwtable
define internal noundef zeroext i1 @_ZL14lean_is_scalarP11lean_object(ptr noundef %0) #11 {
  %2 = alloca ptr, align 8
  store ptr %0, ptr %2, align 8, !tbaa !3
  %3 = load ptr, ptr %2, align 8, !tbaa !3
  %4 = ptrtoint ptr %3 to i64
  %5 = and i64 %4, 1
  %6 = icmp eq i64 %5, 1
  ret i1 %6
}

; Function Attrs: alwaysinline mustprogress uwtable
define internal void @_ZL8lean_incP11lean_object(ptr noundef %0) #8 {
  %2 = alloca ptr, align 8
  store ptr %0, ptr %2, align 8, !tbaa !3
  %3 = load ptr, ptr %2, align 8, !tbaa !3
  %4 = call noundef zeroext i1 @_ZL14lean_is_scalarP11lean_object(ptr noundef %3)
  br i1 %4, label %7, label %5

5:                                                ; preds = %1
  %6 = load ptr, ptr %2, align 8, !tbaa !3
  call void @_ZL12lean_inc_refP11lean_object(ptr noundef %6)
  br label %7

7:                                                ; preds = %5, %1
  ret void
}

; Function Attrs: inlinehint mustprogress uwtable
define internal void @"_ZZN4lean27initialize_libuv_tcp_socketEvENK3$_0clEPvP11lean_object"(ptr noundef nonnull align 1 dereferenceable(1) %0, ptr noundef %1, ptr noundef %2) #7 align 2 {
  %4 = alloca ptr, align 8
  %5 = alloca ptr, align 8
  %6 = alloca ptr, align 8
  %7 = alloca ptr, align 8
  store ptr %0, ptr %4, align 8, !tbaa !3
  store ptr %1, ptr %5, align 8, !tbaa !3
  store ptr %2, ptr %6, align 8, !tbaa !3
  call void @llvm.lifetime.start.p0(i64 8, ptr %7) #14
  %8 = load ptr, ptr %5, align 8, !tbaa !3
  store ptr %8, ptr %7, align 8, !tbaa !3
  %9 = load ptr, ptr %7, align 8, !tbaa !3
  %10 = getelementptr inbounds nuw %"struct.lean::lean_uv_tcp_socket_object", ptr %9, i32 0, i32 1
  %11 = load ptr, ptr %10, align 8, !tbaa !10
  %12 = icmp ne ptr %11, null
  br i1 %12, label %13, label %20

13:                                               ; preds = %3
  %14 = load ptr, ptr %6, align 8, !tbaa !3
  call void @_ZL8lean_incP11lean_object(ptr noundef %14)
  %15 = load ptr, ptr %6, align 8, !tbaa !3
  %16 = load ptr, ptr %7, align 8, !tbaa !3
  %17 = getelementptr inbounds nuw %"struct.lean::lean_uv_tcp_socket_object", ptr %16, i32 0, i32 1
  %18 = load ptr, ptr %17, align 8, !tbaa !10
  %19 = call ptr @lean_apply_1(ptr noundef %15, ptr noundef %18)
  br label %20

20:                                               ; preds = %13, %3
  %21 = load ptr, ptr %7, align 8, !tbaa !3
  %22 = getelementptr inbounds nuw %"struct.lean::lean_uv_tcp_socket_object", ptr %21, i32 0, i32 3
  %23 = load ptr, ptr %22, align 8, !tbaa !7
  %24 = icmp ne ptr %23, null
  br i1 %24, label %25, label %32

25:                                               ; preds = %20
  %26 = load ptr, ptr %6, align 8, !tbaa !3
  call void @_ZL8lean_incP11lean_object(ptr noundef %26)
  %27 = load ptr, ptr %6, align 8, !tbaa !3
  %28 = load ptr, ptr %7, align 8, !tbaa !3
  %29 = getelementptr inbounds nuw %"struct.lean::lean_uv_tcp_socket_object", ptr %28, i32 0, i32 3
  %30 = load ptr, ptr %29, align 8, !tbaa !7
  %31 = call ptr @lean_apply_1(ptr noundef %27, ptr noundef %30)
  br label %32

32:                                               ; preds = %25, %20
  %33 = load ptr, ptr %7, align 8, !tbaa !3
  %34 = getelementptr inbounds nuw %"struct.lean::lean_uv_tcp_socket_object", ptr %33, i32 0, i32 2
  %35 = load ptr, ptr %34, align 8, !tbaa !11
  %36 = icmp ne ptr %35, null
  br i1 %36, label %37, label %44

37:                                               ; preds = %32
  %38 = load ptr, ptr %6, align 8, !tbaa !3
  call void @_ZL8lean_incP11lean_object(ptr noundef %38)
  %39 = load ptr, ptr %6, align 8, !tbaa !3
  %40 = load ptr, ptr %7, align 8, !tbaa !3
  %41 = getelementptr inbounds nuw %"struct.lean::lean_uv_tcp_socket_object", ptr %40, i32 0, i32 2
  %42 = load ptr, ptr %41, align 8, !tbaa !11
  %43 = call ptr @lean_apply_1(ptr noundef %39, ptr noundef %42)
  br label %44

44:                                               ; preds = %37, %32
  %45 = load ptr, ptr %7, align 8, !tbaa !3
  %46 = getelementptr inbounds nuw %"struct.lean::lean_uv_tcp_socket_object", ptr %45, i32 0, i32 5
  %47 = load ptr, ptr %46, align 8, !tbaa !12
  %48 = icmp ne ptr %47, null
  br i1 %48, label %49, label %56

49:                                               ; preds = %44
  %50 = load ptr, ptr %6, align 8, !tbaa !3
  call void @_ZL8lean_incP11lean_object(ptr noundef %50)
  %51 = load ptr, ptr %6, align 8, !tbaa !3
  %52 = load ptr, ptr %7, align 8, !tbaa !3
  %53 = getelementptr inbounds nuw %"struct.lean::lean_uv_tcp_socket_object", ptr %52, i32 0, i32 5
  %54 = load ptr, ptr %53, align 8, !tbaa !12
  %55 = call ptr @lean_apply_1(ptr noundef %51, ptr noundef %54)
  br label %56

56:                                               ; preds = %49, %44
  call void @llvm.lifetime.end.p0(i64 8, ptr %7) #14
  ret void
}

; Function Attrs: inlinehint mustprogress uwtable
define internal void @"_ZZN4lean27initialize_libuv_tcp_socketEvEN3$_08__invokeEPvP11lean_object"(ptr noundef %0, ptr noundef %1) #7 align 2 {
  %3 = alloca ptr, align 8
  %4 = alloca ptr, align 8
  %5 = alloca %class.anon.2, align 1
  store ptr %0, ptr %3, align 8, !tbaa !3
  store ptr %1, ptr %4, align 8, !tbaa !3
  %6 = load ptr, ptr %3, align 8, !tbaa !3
  %7 = load ptr, ptr %4, align 8, !tbaa !3
  call void @"_ZZN4lean27initialize_libuv_tcp_socketEvENK3$_0clEPvP11lean_object"(ptr noundef nonnull align 1 dereferenceable(1) %5, ptr noundef %6, ptr noundef %7)
  ret void
}