; Function Attrs: inlinehint mustprogress uwtable
define internal void @"_ZZN4lean27initialize_libuv_tcp_socketEvEN3$_08__invokeEPvP11lean_object"(ptr noundef readonly captures(none) %0, ptr noundef %1) #10 align 2 {
  %3 = getelementptr inbounds nuw i8, ptr %0, i64 8
  %4 = load ptr, ptr %3, align 8, !tbaa !19
  %.not.i = icmp eq ptr %4, null
  br i1 %.not.i, label %16, label %5

5:                                                ; preds = %2
  %6 = ptrtoint ptr %1 to i64
  %7 = and i64 %6, 1
  %.not1.i = icmp eq i64 %7, 0
  br i1 %.not1.i, label %8, label %_ZL8lean_incP11lean_object.exit22.i

8:                                                ; preds = %5
  %.val.i.i = load i32, ptr %1, align 4, !tbaa !40
  %9 = icmp sgt i32 %.val.i.i, 0
  br i1 %9, label %10, label %12, !prof !9

10:                                               ; preds = %8
  %11 = add nuw nsw i32 %.val.i.i, 1
  store i32 %11, ptr %1, align 4, !tbaa !40
  br label %_ZL8lean_incP11lean_object.exit22.i

12:                                               ; preds = %8
  %.not.i.i = icmp eq i32 %.val.i.i, 0
  br i1 %.not.i.i, label %_ZL8lean_incP11lean_object.exit22.i, label %13

13:                                               ; preds = %12
  tail call void @lean_inc_ref_cold(ptr noundef nonnull %1)
  %.pre.i = load ptr, ptr %3, align 8, !tbaa !19
  br label %_ZL8lean_incP11lean_object.exit22.i

_ZL8lean_incP11lean_object.exit22.i:              ; preds = %13, %12, %10, %5
  %14 = phi ptr [ %.pre.i, %13 ], [ %4, %12 ], [ %4, %10 ], [ %4, %5 ]
  %15 = tail call ptr @lean_apply_1(ptr noundef %1, ptr noundef %14)
  br label %16

16:                                               ; preds = %_ZL8lean_incP11lean_object.exit22.i, %2
  %17 = getelementptr inbounds nuw i8, ptr %0, i64 24
  %18 = load ptr, ptr %17, align 8, !tbaa !3
  %.not17.i = icmp eq ptr %18, null
  br i1 %.not17.i, label %30, label %19

19:                                               ; preds = %16
  %20 = ptrtoint ptr %1 to i64
  %21 = and i64 %20, 1
  %.not2.i = icmp eq i64 %21, 0
  br i1 %.not2.i, label %22, label %_ZL8lean_incP11lean_object.exit21.i

22:                                               ; preds = %19
  %.val.i23.i = load i32, ptr %1, align 4, !tbaa !40
  %23 = icmp sgt i32 %.val.i23.i, 0
  br i1 %23, label %24, label %26, !prof !9

24:                                               ; preds = %22
  %25 = add nuw nsw i32 %.val.i23.i, 1
  store i32 %25, ptr %1, align 4, !tbaa !40
  br label %_ZL8lean_incP11lean_object.exit21.i

26:                                               ; preds = %22
  %.not.i24.i = icmp eq i32 %.val.i23.i, 0
  br i1 %.not.i24.i, label %_ZL8lean_incP11lean_object.exit21.i, label %27

27:                                               ; preds = %26
  tail call void @lean_inc_ref_cold(ptr noundef nonnull %1)
  %.pre5.i = load ptr, ptr %17, align 8, !tbaa !3
  br label %_ZL8lean_incP11lean_object.exit21.i

_ZL8lean_incP11lean_object.exit21.i:              ; preds = %27, %26, %24, %19
  %28 = phi ptr [ %.pre5.i, %27 ], [ %18, %26 ], [ %18, %24 ], [ %18, %19 ]
  %29 = tail call ptr @lean_apply_1(ptr noundef %1, ptr noundef %28)
  br label %30

30:                                               ; preds = %_ZL8lean_incP11lean_object.exit21.i, %16
  %31 = getelementptr inbounds nuw i8, ptr %0, i64 16
  %32 = load ptr, ptr %31, align 8, !tbaa !20
  %.not18.i = icmp eq ptr %32, null
  br i1 %.not18.i, label %44, label %33

33:                                               ; preds = %30
  %34 = ptrtoint ptr %1 to i64
  %35 = and i64 %34, 1
  %.not3.i = icmp eq i64 %35, 0
  br i1 %.not3.i, label %36, label %_ZL8lean_incP11lean_object.exit20.i

36:                                               ; preds = %33
  %.val.i26.i = load i32, ptr %1, align 4, !tbaa !40
  %37 = icmp sgt i32 %.val.i26.i, 0
  br i1 %37, label %38, label %40, !prof !9

38:                                               ; preds = %36
  %39 = add nuw nsw i32 %.val.i26.i, 1
  store i32 %39, ptr %1, align 4, !tbaa !40
  br label %_ZL8lean_incP11lean_object.exit20.i

40:                                               ; preds = %36
  %.not.i27.i = icmp eq i32 %.val.i26.i, 0
  br i1 %.not.i27.i, label %_ZL8lean_incP11lean_object.exit20.i, label %41

41:                                               ; preds = %40
  tail call void @lean_inc_ref_cold(ptr noundef nonnull %1)
  %.pre6.i = load ptr, ptr %31, align 8, !tbaa !20
  br label %_ZL8lean_incP11lean_object.exit20.i

_ZL8lean_incP11lean_object.exit20.i:              ; preds = %41, %40, %38, %33
  %42 = phi ptr [ %.pre6.i, %41 ], [ %32, %40 ], [ %32, %38 ], [ %32, %33 ]
  %43 = tail call ptr @lean_apply_1(ptr noundef %1, ptr noundef %42)
  br label %44

44:                                               ; preds = %_ZL8lean_incP11lean_object.exit20.i, %30
  %45 = getelementptr inbounds nuw i8, ptr %0, i64 40
  %46 = load ptr, ptr %45, align 8, !tbaa !21
  %.not19.i = icmp eq ptr %46, null
  br i1 %.not19.i, label %"_ZZN4lean27initialize_libuv_tcp_socketEvENK3$_0clEPvP11lean_object.exit", label %47

47:                                               ; preds = %44
  %48 = ptrtoint ptr %1 to i64
  %49 = and i64 %48, 1
  %.not4.i = icmp eq i64 %49, 0
  br i1 %.not4.i, label %50, label %_ZL8lean_incP11lean_object.exit.i

50:                                               ; preds = %47
  %.val.i29.i = load i32, ptr %1, align 4, !tbaa !40
  %51 = icmp sgt i32 %.val.i29.i, 0
  br i1 %51, label %52, label %54, !prof !9

52:                                               ; preds = %50
  %53 = add nuw nsw i32 %.val.i29.i, 1
  store i32 %53, ptr %1, align 4, !tbaa !40
  br label %_ZL8lean_incP11lean_object.exit.i

54:                                               ; preds = %50
  %.not.i30.i = icmp eq i32 %.val.i29.i, 0
  br i1 %.not.i30.i, label %_ZL8lean_incP11lean_object.exit.i, label %55

55:                                               ; preds = %54
  tail call void @lean_inc_ref_cold(ptr noundef nonnull %1)
  %.pre7.i = load ptr, ptr %45, align 8, !tbaa !21
  br label %_ZL8lean_incP11lean_object.exit.i

_ZL8lean_incP11lean_object.exit.i:                ; preds = %55, %54, %52, %47
  %56 = phi ptr [ %.pre7.i, %55 ], [ %46, %54 ], [ %46, %52 ], [ %46, %47 ]
  %57 = tail call ptr @lean_apply_1(ptr noundef %1, ptr noundef %56)
  br label %"_ZZN4lean27initialize_libuv_tcp_socketEvENK3$_0clEPvP11lean_object.exit"

"_ZZN4lean27initialize_libuv_tcp_socketEvENK3$_0clEPvP11lean_object.exit": ; preds = %44, %_ZL8lean_incP11lean_object.exit.i
  ret void
}